target datalayout = "e-m:e-p270:32:32-p271:32:32-p272:64:64-i64:64-i128:128-f80:128-n8:16:32:64-S128"
target triple = "x86_64-pc-linux-gnu"

%"struct.std::_Vector_base.5" = type { %"struct.std::_Vector_base<int, std::allocator<int>>::_Vector_impl" }
%"struct.std::_Vector_base<int, std::allocator<int>>::_Vector_impl" = type { %"struct.std::_Vector_base<int, std::allocator<int>>::_Vector_impl_data" }
%"struct.std::_Vector_base<int, std::allocator<int>>::_Vector_impl_data" = type { ptr, ptr, ptr }

; Function Attrs: mustprogress nounwind uwtable
define linkonce_odr noundef nonnull align 4 dereferenceable(4) ptr @_ZNKSt6vectorIiSaIiEEixEm(ptr noundef nonnull align 8 dereferenceable(24) %0, i64 noundef %1) #0 comdat align 2 {
  %3 = alloca ptr, align 8
  %4 = alloca i64, align 8
  store ptr %0, ptr %3, align 8, !tbaa !21
  store i64 %1, ptr %4, align 8, !tbaa !37
  %5 = load ptr, ptr %3, align 8
  %6 = getelementptr inbounds nuw %"struct.std::_Vector_base.5", ptr %5, i32 0, i32 0
  %7 = getelementptr inbounds nuw %"struct.std::_Vector_base<int, std::allocator<int>>::_Vector_impl_data", ptr %6, i32 0, i32 0
  %8 = load ptr, ptr %7, align 8, !tbaa !332
  %9 = load i64, ptr %4, align 8, !tbaa !37
  %10 = getelementptr inbounds nuw i32, ptr %8, i64 %9
  ret ptr %10
}

; Function Attrs: mustprogress nounwind uwtable
define linkonce_odr noundef i64 @_ZNKSt6vectorIiSaIiEE4sizeEv(ptr noundef nonnull align 8 dereferenceable(24) %0) #0 comdat align 2 {
  %2 = alloca ptr, align 8
  store ptr %0, ptr %2, align 8, !tbaa !21
  %3 = load ptr, ptr %2, align 8
  %4 = getelementptr inbounds nuw %"struct.std::_Vector_base.5", ptr %3, i32 0, i32 0
  %5 = getelementptr inbounds nuw %"struct.std::_Vector_base<int, std::allocator<int>>::_Vector_impl_data", ptr %4, i32 0, i32 1
  %6 = load ptr, ptr %5, align 8, !tbaa !765
  %7 = getelementptr inbounds nuw %"struct.std::_Vector_base.5", ptr %3, i32 0, i32 0
  %8 = getelementptr inbounds nuw %"struct.std::_Vector_base<int, std::allocator<int>>::_Vector_impl_data", ptr %7, i32 0, i32 0
  %9 = load ptr, ptr %8, align 8, !tbaa !332
  %10 = ptrtoint ptr %6 to i64
  %11 = ptrtoint ptr %9 to i64
  %12 = sub i64 %10, %11
  %13 = sdiv exact i64 %12, 4
  ret i64 %13
}

; Function Attrs: mustprogress nounwind uwtable
define noundef zeroext i1 @_ZN8LightGBM10NeedFilterERKSt6vectorIiSaIiEEiiNS_7BinTypeE(ptr noundef nonnull align 8 dereferenceable(24) %0, i32 noundef %1, i32 noundef %2, i32 noundef %3) #0 {
  %5 = alloca i1, align 1
  %6 = alloca ptr, align 8
  %7 = alloca i32, align 4
  %8 = alloca i32, align 4
  %9 = alloca i32, align 4
  %10 = alloca i32, align 4
  %11 = alloca i64, align 8
  %12 = alloca i32, align 4
  %13 = alloca i64, align 8
  %14 = alloca i32, align 4
  store ptr %0, ptr %6, align 8, !tbaa !21
  store i32 %1, ptr %7, align 4, !tbaa !11
  store i32 %2, ptr %8, align 4, !tbaa !11
  store i32 %3, ptr %9, align 4, !tbaa !1386
  %15 = load i32, ptr %9, align 4, !tbaa !1386
  %16 = icmp eq i32 %15, 0
  br i1 %16, label %17, label %52

17:                                               ; preds = %4
  call void @llvm.lifetime.start.p0(i64 4, ptr %10) #5
  store i32 0, ptr %10, align 4, !tbaa !11
  call void @llvm.lifetime.start.p0(i64 8, ptr %11) #5
  store i64 0, ptr %11, align 8, !tbaa !37
  br label %18

18:                                               ; preds = %43, %17
  %19 = load i64, ptr %11, align 8, !tbaa !37
  %20 = load ptr, ptr %6, align 8, !tbaa !21
  %21 = call noundef i64 @_ZNKSt6vectorIiSaIiEE4sizeEv(ptr noundef nonnull align 8 dereferenceable(24) %20) #5
  %22 = sub i64 %21, 1
  %23 = icmp ult i64 %19, %22
  br i1 %23, label %25, label %24

24:                                               ; preds = %18
  store i32 2, ptr %12, align 4
  br label %46

25:                                               ; preds = %18
  %26 = load ptr, ptr %6, align 8, !tbaa !21
  %27 = load i64, ptr %11, align 8, !tbaa !37
  %28 = call noundef nonnull align 4 dereferenceable(4) ptr @_ZNKSt6vectorIiSaIiEEixEm(ptr noundef nonnull align 8 dereferenceable(24) %26, i64 noundef %27) #5
  %29 = load i32, ptr %28, align 4, !tbaa !11
  %30 = load i32, ptr %10, align 4, !tbaa !11
  %31 = add nsw i32 %30, %29
  store i32 %31, ptr %10, align 4, !tbaa !11
  %32 = load i32, ptr %10, align 4, !tbaa !11
  %33 = load i32, ptr %8, align 4, !tbaa !11
  %34 = icmp sge i32 %32, %33
  br i1 %34, label %35, label %42

35:                                               ; preds = %25
  %36 = load i32, ptr %7, align 4, !tbaa !11
  %37 = load i32, ptr %10, align 4, !tbaa !11
  %38 = sub nsw i32 %36, %37
  %39 = load i32, ptr %8, align 4, !tbaa !11
  %40 = icmp sge i32 %38, %39
  br i1 %40, label %41, label %42

41:                                               ; preds = %35
  store i1 false, ptr %5, align 1
  store i32 1, ptr %12, align 4
  br label %46

42:                                               ; preds = %35, %25
  br label %43

43:                                               ; preds = %42
  %44 = load i64, ptr %11, align 8, !tbaa !37
  %45 = add i64 %44, 1
  store i64 %45, ptr %11, align 8, !tbaa !37
  br label %18, !llvm.loop !1387

46:                                               ; preds = %41, %24
  call void @llvm.lifetime.end.p0(i64 8, ptr %11) #5
  %47 = load i32, ptr %12, align 4
  switch i32 %47, label %49 [
    i32 2, label %48
  ]

48:                                               ; preds = %46
  store i32 0, ptr %12, align 4
  br label %49

49:                                               ; preds = %48, %46
  call void @llvm.lifetime.end.p0(i64 4, ptr %10) #5
  %50 = load i32, ptr %12, align 4
  switch i32 %50, label %94 [
    i32 0, label %51
    i32 1, label %92
  ]

51:                                               ; preds = %49
  br label %91

52:                                               ; preds = %4
  %53 = load ptr, ptr %6, align 8, !tbaa !21
  %54 = call noundef i64 @_ZNKSt6vectorIiSaIiEE4sizeEv(ptr noundef nonnull align 8 dereferenceable(24) %53) #5
  %55 = icmp ule i64 %54, 2
  br i1 %55, label %56, label %89

56:                                               ; preds = %52
  call void @llvm.lifetime.start.p0(i64 8, ptr %13) #5
  store i64 0, ptr %13, align 8, !tbaa !37
  br label %57

57:                                               ; preds = %83, %56
  %58 = load i64, ptr %13, align 8, !tbaa !37
  %59 = load ptr, ptr %6, align 8, !tbaa !21
  %60 = call noundef i64 @_ZNKSt6vectorIiSaIiEE4sizeEv(ptr noundef nonnull align 8 dereferenceable(24) %59) #5
  %61 = sub i64 %60, 1
  %62 = icmp ult i64 %58, %61
  br i1 %62, label %64, label %63

63:                                               ; preds = %57
  store i32 5, ptr %12, align 4
  br label %86

64:                                               ; preds = %57
  call void @llvm.lifetime.start.p0(i64 4, ptr %14) #5
  %65 = load ptr, ptr %6, align 8, !tbaa !21
  %66 = load i64, ptr %13, align 8, !tbaa !37
  %67 = call noundef nonnull align 4 dereferenceable(4) ptr @_ZNKSt6vectorIiSaIiEEixEm(ptr noundef nonnull align 8 dereferenceable(24) %65, i64 noundef %66) #5
  %68 = load i32, ptr %67, align 4, !tbaa !11
  store i32 %68, ptr %14, align 4, !tbaa !11
  %69 = load i32, ptr %14, align 4, !tbaa !11
  %70 = load i32, ptr %8, align 4, !tbaa !11
  %71 = icmp sge i32 %69, %70
  br i1 %71, label %72, label %79

72:                                               ; preds = %64
  %73 = load i32, ptr %7, align 4, !tbaa !11
  %74 = load i32, ptr %14, align 4, !tbaa !11
  %75 = sub nsw i32 %73, %74
  %76 = load i32, ptr %8, align 4, !tbaa !11
  %77 = icmp sge i32 %75, %76
  br i1 %77, label %78, label %79

78:                                               ; preds = %72
  store i1 false, ptr %5, align 1
  store i32 1, ptr %12, align 4
  br label %80

79:                                               ; preds = %72, %64
  store i32 0, ptr %12, align 4
  br label %80

80:                                               ; preds = %79, %78
  call void @llvm.lifetime.end.p0(i64 4, ptr %14) #5
  %81 = load i32, ptr %12, align 4
  switch i32 %81, label %86 [
    i32 0, label %82
  ]

82:                                               ; preds = %80
  br label %83

83:                                               ; preds = %82
  %84 = load i64, ptr %13, align 8, !tbaa !37
  %85 = add i64 %84, 1
  store i64 %85, ptr %13, align 8, !tbaa !37
  br label %57, !llvm.loop !1388

86:                                               ; preds = %80, %63
  call void @llvm.lifetime.end.p0(i64 8, ptr %13) #5
  %87 = load i32, ptr %12, align 4
  switch i32 %87, label %94 [
    i32 5, label %88
    i32 1, label %92
  ]

88:                                               ; preds = %86
  br label %90

89:                                               ; preds = %52
  store i1 false, ptr %5, align 1
  br label %92

90:                                               ; preds = %88
  br label %91

91:                                               ; preds = %90, %51
  store i1 true, ptr %5, align 1
  br label %92

92:                                               ; preds = %91, %89, %86, %49
  %93 = load i1, ptr %5, align 1
  ret i1 %93

94:                                               ; preds = %86, %49
  unreachable
}