; Function Attrs: mustprogress nofree norecurse nosync nounwind willreturn memory(read, inaccessiblemem: none) uwtable
define noundef zeroext i1 @_ZN8LightGBM10NeedFilterERKSt6vectorIiSaIiEEiiNS_7BinTypeE(ptr noundef nonnull readonly align 8 captures(none) dereferenceable(24) %0, i32 noundef %1, i32 noundef %2, i32 noundef %3) local_unnamed_addr #26 {
  %5 = icmp eq i32 %3, 0
  %6 = getelementptr inbounds nuw i8, ptr %0, i64 8
  %7 = load ptr, ptr %6, align 8, !tbaa !267
  %8 = load ptr, ptr %0, align 8, !tbaa !39
  %9 = ptrtoint ptr %7 to i64
  %10 = ptrtoint ptr %8 to i64
  %11 = sub i64 %9, %10
  %12 = ashr exact i64 %11, 2
  br i1 %5, label %.preheader, label %19

.preheader:                                       ; preds = %4
  %13 = add nsw i64 %12, -1
  %.not4054.not = icmp eq i64 %13, 0
  br i1 %.not4054.not, label %.thread, label %.lr.ph

.lr.ph:                                           ; preds = %.preheader, %.lr.ph
  %.03256 = phi i64 [ %18, %.lr.ph ], [ 0, %.preheader ]
  %.03355 = phi i32 [ %16, %.lr.ph ], [ 0, %.preheader ]
  %14 = getelementptr inbounds nuw i32, ptr %8, i64 %.03256
  %15 = load i32, ptr %14, align 4, !tbaa !10
  %16 = add nsw i32 %15, %.03355
  %.not38 = icmp slt i32 %16, %2
  %17 = sub nsw i32 %1, %16
  %.not39 = icmp slt i32 %17, %2
  %or.cond = select i1 %.not38, i1 true, i1 %.not39
  %18 = add nuw i64 %.03256, 1
  %exitcond63.not = icmp ne i64 %18, %13
  %or.cond68.not = select i1 %or.cond, i1 %exitcond63.not, i1 false
  br i1 %or.cond68.not, label %.lr.ph, label %.thread, !llvm.loop !991

19:                                               ; preds = %4
  %20 = icmp ult i64 %12, 3
  br i1 %20, label %.preheader49, label %.thread

.preheader49:                                     ; preds = %19
  %21 = add nsw i64 %12, -1
  %.not60 = icmp eq i64 %21, 0
  br i1 %.not60, label %.thread, label %.critedge

.critedge:                                        ; preds = %.preheader49, %.critedge
  %.02852 = phi i64 [ %25, %.critedge ], [ 0, %.preheader49 ]
  %22 = getelementptr inbounds nuw i32, ptr %8, i64 %.02852
  %23 = load i32, ptr %22, align 4, !tbaa !10
  %.not = icmp slt i32 %23, %2
  %24 = sub nsw i32 %1, %23
  %.not37 = icmp slt i32 %24, %2
  %or.cond41 = select i1 %.not, i1 true, i1 %.not37
  %25 = add nuw i64 %.02852, 1
  %exitcond.not = icmp ne i64 %25, %21
  %or.cond69.not = select i1 %or.cond41, i1 %exitcond.not, i1 false
  br i1 %or.cond69.not, label %.critedge, label %.thread, !llvm.loop !992

.thread:                                          ; preds = %.critedge, %.lr.ph, %.preheader49, %.preheader, %19
  %.1 = phi i1 [ false, %19 ], [ true, %.preheader ], [ true, %.preheader49 ], [ %or.cond, %.lr.ph ], [ %or.cond41, %.critedge ]
  ret i1 %.1
}